; Function Attrs: mustprogress uwtable
define void @_ZN3g2o15SparseOptimizer3popERSt6vectorIPNS_16OptimizableGraph6VertexESaIS4_EE(ptr nocapture noundef nonnull readnone align 8 dereferenceable(409) %0, ptr nocapture noundef nonnull readonly align 8 dereferenceable(24) %1) local_unnamed_addr #3 align 2 {
  %3 = load ptr, ptr %1, align 8
  %4 = getelementptr inbounds nuw i8, ptr %1, i64 8
  %5 = load ptr, ptr %4, align 8
  %.not5 = icmp eq ptr %3, %5
  br i1 %.not5, label %._crit_edge, label %.lr.ph

.lr.ph:                                           ; preds = %2, %.lr.ph
  %.sroa.02.06 = phi ptr [ %10, %.lr.ph ], [ %3, %2 ]
  %6 = load ptr, ptr %.sroa.02.06, align 8
  %7 = load ptr, ptr %6, align 8
  %8 = getelementptr inbounds i8, ptr %7, i64 176
  %9 = load ptr, ptr %8, align 8
  tail call void %9(ptr noundef nonnull align 8 dereferenceable(128) %6)
  %10 = getelementptr inbounds i8, ptr %.sroa.02.06, i64 8
  %11 = load ptr, ptr %4, align 8
  %.not = icmp eq ptr %10, %11
  br i1 %.not, label %._crit_edge, label %.lr.ph, !llvm.loop !43

._crit_edge:                                      ; preds = %.lr.ph, %2
  ret void
}